target datalayout = "e-m:e-p270:32:32-p271:32:32-p272:64:64-i64:64-i128:128-f80:128-n8:16:32:64-S128"
target triple = "x86_64-pc-linux-gnu"

; Function Attrs: mustprogress nounwind uwtable
define linkonce_odr noundef zeroext i1 @_ZN13sentencepiece11string_util16IsValidCodepointEj(i32 noundef %0) #4 comdat {
  %2 = alloca i32, align 4
  store i32 %0, ptr %2, align 4
  %3 = load i32, ptr %2, align 4
  %4 = icmp ult i32 %3, 55296
  br i1 %4, label %13, label %5

5:                                                ; preds = %1
  %6 = load i32, ptr %2, align 4
  %7 = icmp uge i32 %6, 57344
  br i1 %7, label %8, label %11

8:                                                ; preds = %5
  %9 = load i32, ptr %2, align 4
  %10 = icmp ule i32 %9, 1114111
  br label %11

11:                                               ; preds = %8, %5
  %12 = phi i1 [ false, %5 ], [ %10, %8 ]
  br label %13

13:                                               ; preds = %11, %1
  %14 = phi i1 [ true, %1 ], [ %12, %11 ]
  ret i1 %14
}

; Function Attrs: mustprogress nounwind uwtable
define linkonce_odr noundef zeroext i1 @_ZN13sentencepiece11string_util11IsTrailByteEc(i8 noundef signext %0) #4 comdat {
  %2 = alloca i8, align 1
  store i8 %0, ptr %2, align 1
  %3 = load i8, ptr %2, align 1
  %4 = sext i8 %3 to i32
  %5 = icmp slt i32 %4, -64
  ret i1 %5
}

; Function Attrs: mustprogress uwtable
define noundef i32 @_ZN13sentencepiece11string_util10DecodeUTF8EPKcS2_Pm(ptr noundef %0, ptr noundef %1, ptr noundef %2) #5 {
  %4 = alloca i32, align 4
  %5 = alloca ptr, align 8
  %6 = alloca ptr, align 8
  %7 = alloca ptr, align 8
  %8 = alloca i64, align 8
  %9 = alloca i32, align 4
  %10 = alloca i32, align 4
  %11 = alloca i32, align 4
  store ptr %0, ptr %5, align 8
  store ptr %1, ptr %6, align 8
  store ptr %2, ptr %7, align 8
  %12 = load ptr, ptr %6, align 8
  %13 = load ptr, ptr %5, align 8
  %14 = ptrtoint ptr %12 to i64
  %15 = ptrtoint ptr %13 to i64
  %16 = sub i64 %14, %15
  store i64 %16, ptr %8, align 8
  %17 = load ptr, ptr %5, align 8
  %18 = getelementptr inbounds i8, ptr %17, i64 0
  %19 = load i8, ptr %18, align 1
  %20 = zext i8 %19 to i32
  %21 = icmp slt i32 %20, 128
  br i1 %21, label %22, label %28

22:                                               ; preds = %3
  %23 = load ptr, ptr %7, align 8
  store i64 1, ptr %23, align 8
  %24 = load ptr, ptr %5, align 8
  %25 = getelementptr inbounds i8, ptr %24, i64 0
  %26 = load i8, ptr %25, align 1
  %27 = zext i8 %26 to i32
  store i32 %27, ptr %4, align 4
  br label %180

28:                                               ; preds = %3
  %29 = load i64, ptr %8, align 8
  %30 = icmp uge i64 %29, 2
  br i1 %30, label %31, label %65

31:                                               ; preds = %28
  %32 = load ptr, ptr %5, align 8
  %33 = getelementptr inbounds i8, ptr %32, i64 0
  %34 = load i8, ptr %33, align 1
  %35 = sext i8 %34 to i32
  %36 = and i32 %35, 224
  %37 = icmp eq i32 %36, 192
  br i1 %37, label %38, label %65

38:                                               ; preds = %31
  %39 = load ptr, ptr %5, align 8
  %40 = getelementptr inbounds i8, ptr %39, i64 0
  %41 = load i8, ptr %40, align 1
  %42 = sext i8 %41 to i32
  %43 = and i32 %42, 31
  %44 = shl i32 %43, 6
  %45 = load ptr, ptr %5, align 8
  %46 = getelementptr inbounds i8, ptr %45, i64 1
  %47 = load i8, ptr %46, align 1
  %48 = sext i8 %47 to i32
  %49 = and i32 %48, 63
  %50 = or i32 %44, %49
  store i32 %50, ptr %9, align 4
  %51 = load ptr, ptr %5, align 8
  %52 = getelementptr inbounds i8, ptr %51, i64 1
  %53 = load i8, ptr %52, align 1
  %54 = call noundef zeroext i1 @_ZN13sentencepiece11string_util11IsTrailByteEc(i8 noundef signext %53)
  br i1 %54, label %55, label %64

55:                                               ; preds = %38
  %56 = load i32, ptr %9, align 4
  %57 = icmp uge i32 %56, 128
  br i1 %57, label %58, label %64

58:                                               ; preds = %55
  %59 = load i32, ptr %9, align 4
  %60 = call noundef zeroext i1 @_ZN13sentencepiece11string_util16IsValidCodepointEj(i32 noundef %59)
  br i1 %60, label %61, label %64

61:                                               ; preds = %58
  %62 = load ptr, ptr %7, align 8
  store i64 2, ptr %62, align 8
  %63 = load i32, ptr %9, align 4
  store i32 %63, ptr %4, align 4
  br label %180

64:                                               ; preds = %58, %55, %38
  br label %177

65:                                               ; preds = %31, %28
  %66 = load i64, ptr %8, align 8
  %67 = icmp uge i64 %66, 3
  br i1 %67, label %68, label %114

68:                                               ; preds = %65
  %69 = load ptr, ptr %5, align 8
  %70 = getelementptr inbounds i8, ptr %69, i64 0
  %71 = load i8, ptr %70, align 1
  %72 = sext i8 %71 to i32
  %73 = and i32 %72, 240
  %74 = icmp eq i32 %73, 224
  br i1 %74, label %75, label %114

75:                                               ; preds = %68
  %76 = load ptr, ptr %5, align 8
  %77 = getelementptr inbounds i8, ptr %76, i64 0
  %78 = load i8, ptr %77, align 1
  %79 = sext i8 %78 to i32
  %80 = and i32 %79, 15
  %81 = shl i32 %80, 12
  %82 = load ptr, ptr %5, align 8
  %83 = getelementptr inbounds i8, ptr %82, i64 1
  %84 = load i8, ptr %83, align 1
  %85 = sext i8 %84 to i32
  %86 = and i32 %85, 63
  %87 = shl i32 %86, 6
  %88 = or i32 %81, %87
  %89 = load ptr, ptr %5, align 8
  %90 = getelementptr inbounds i8, ptr %89, i64 2
  %91 = load i8, ptr %90, align 1
  %92 = sext i8 %91 to i32
  %93 = and i32 %92, 63
  %94 = or i32 %88, %93
  store i32 %94, ptr %10, align 4
  %95 = load ptr, ptr %5, align 8
  %96 = getelementptr inbounds i8, ptr %95, i64 1
  %97 = load i8, ptr %96, align 1
  %98 = call noundef zeroext i1 @_ZN13sentencepiece11string_util11IsTrailByteEc(i8 noundef signext %97)
  br i1 %98, label %99, label %113

99:                                               ; preds = %75
  %100 = load ptr, ptr %5, align 8
  %101 = getelementptr inbounds i8, ptr %100, i64 2
  %102 = load i8, ptr %101, align 1
  %103 = call noundef zeroext i1 @_ZN13sentencepiece11string_util11IsTrailByteEc(i8 noundef signext %102)
  br i1 %103, label %104, label %113

104:                                              ; preds = %99
  %105 = load i32, ptr %10, align 4
  %106 = icmp uge i32 %105, 2048
  br i1 %106, label %107, label %113

107:                                              ; preds = %104
  %108 = load i32, ptr %10, align 4
  %109 = call noundef zeroext i1 @_ZN13sentencepiece11string_util16IsValidCodepointEj(i32 noundef %108)
  br i1 %109, label %110, label %113

110:                                              ; preds = %107
  %111 = load ptr, ptr %7, align 8
  store i64 3, ptr %111, align 8
  %112 = load i32, ptr %10, align 4
  store i32 %112, ptr %4, align 4
  br label %180

113:                                              ; preds = %107, %104, %99, %75
  br label %176

114:                                              ; preds = %68, %65
  %115 = load i64, ptr %8, align 8
  %116 = icmp uge i64 %115, 4
  br i1 %116, label %117, label %175

117:                                              ; preds = %114
  %118 = load ptr, ptr %5, align 8
  %119 = getelementptr inbounds i8, ptr %118, i64 0
  %120 = load i8, ptr %119, align 1
  %121 = sext i8 %120 to i32
  %122 = and i32 %121, 248
  %123 = icmp eq i32 %122, 240
  br i1 %123, label %124, label %175

124:                                              ; preds = %117
  %125 = load ptr, ptr %5, align 8
  %126 = getelementptr inbounds i8, ptr %125, i64 0
  %127 = load i8, ptr %126, align 1
  %128 = sext i8 %127 to i32
  %129 = and i32 %128, 7
  %130 = shl i32 %129, 18
  %131 = load ptr, ptr %5, align 8
  %132 = getelementptr inbounds i8, ptr %131, i64 1
  %133 = load i8, ptr %132, align 1
  %134 = sext i8 %133 to i32
  %135 = and i32 %134, 63
  %136 = shl i32 %135, 12
  %137 = or i32 %130, %136
  %138 = load ptr, ptr %5, align 8
  %139 = getelementptr inbounds i8, ptr %138, i64 2
  %140 = load i8, ptr %139, align 1
  %141 = sext i8 %140 to i32
  %142 = and i32 %141, 63
  %143 = shl i32 %142, 6
  %144 = or i32 %137, %143
  %145 = load ptr, ptr %5, align 8
  %146 = getelementptr inbounds i8, ptr %145, i64 3
  %147 = load i8, ptr %146, align 1
  %148 = sext i8 %147 to i32
  %149 = and i32 %148, 63
  %150 = or i32 %144, %149
  store i32 %150, ptr %11, align 4
  %151 = load ptr, ptr %5, align 8
  %152 = getelementptr inbounds i8, ptr %151, i64 1
  %153 = load i8, ptr %152, align 1
  %154 = call noundef zeroext i1 @_ZN13sentencepiece11string_util11IsTrailByteEc(i8 noundef signext %153)
  br i1 %154, label %155, label %174

155:                                              ; preds = %124
  %156 = load ptr, ptr %5, align 8
  %157 = getelementptr inbounds i8, ptr %156, i64 2
  %158 = load i8, ptr %157, align 1
  %159 = call noundef zeroext i1 @_ZN13sentencepiece11string_util11IsTrailByteEc(i8 noundef signext %158)
  br i1 %159, label %160, label %174

160:                                              ; preds = %155
  %161 = load ptr, ptr %5, align 8
  %162 = getelementptr inbounds i8, ptr %161, i64 3
  %163 = load i8, ptr %162, align 1
  %164 = call noundef zeroext i1 @_ZN13sentencepiece11string_util11IsTrailByteEc(i8 noundef signext %163)
  br i1 %164, label %165, label %174

165:                                              ; preds = %160
  %166 = load i32, ptr %11, align 4
  %167 = icmp uge i32 %166, 65536
  br i1 %167, label %168, label %174

168:                                              ; preds = %165
  %169 = load i32, ptr %11, align 4
  %170 = call noundef zeroext i1 @_ZN13sentencepiece11string_util16IsValidCodepointEj(i32 noundef %169)
  br i1 %170, label %171, label %174

171:                                              ; preds = %168
  %172 = load ptr, ptr %7, align 8
  store i64 4, ptr %172, align 8
  %173 = load i32, ptr %11, align 4
  store i32 %173, ptr %4, align 4
  br label %180

174:                                              ; preds = %168, %165, %160, %155, %124
  br label %175

175:                                              ; preds = %174, %117, %114
  br label %176

176:                                              ; preds = %175, %113
  br label %177

177:                                              ; preds = %176, %64
  br label %178

178:                                              ; preds = %177
  %179 = load ptr, ptr %7, align 8
  store i64 1, ptr %179, align 8
  store i32 65533, ptr %4, align 4
  br label %180

180:                                              ; preds = %178, %171, %110, %61, %22
  %181 = load i32, ptr %4, align 4
  ret i32 %181
}