; Function Attrs: mustprogress nofree norecurse nosync nounwind willreturn memory(argmem: readwrite) uwtable
define noundef range(i32 0, 2097152) i32 @_ZN13sentencepiece11string_util10DecodeUTF8EPKcS2_Pm(ptr noundef %0, ptr noundef %1, ptr nocapture noundef writeonly %2) local_unnamed_addr #5 {
  %4 = ptrtoint ptr %1 to i64
  %5 = ptrtoint ptr %0 to i64
  %6 = sub i64 %4, %5
  %7 = load i8, ptr %0, align 1
  %8 = icmp sgt i8 %7, -1
  br i1 %8, label %9, label %12

9:                                                ; preds = %3
  store i64 1, ptr %2, align 8
  %10 = load i8, ptr %0, align 1
  %11 = zext i8 %10 to i32
  br label %89

12:                                               ; preds = %3
  %13 = icmp ugt i64 %6, 1
  br i1 %13, label %14, label %.thread47

14:                                               ; preds = %12
  %15 = sext i8 %7 to i32
  %16 = and i32 %15, 224
  %17 = icmp eq i32 %16, 192
  br i1 %17, label %18, label %29

18:                                               ; preds = %14
  %19 = shl nsw i32 %15, 6
  %20 = and i32 %19, 1984
  %21 = getelementptr inbounds i8, ptr %0, i64 1
  %22 = load i8, ptr %21, align 1
  %23 = and i8 %22, 63
  %24 = zext nneg i8 %23 to i32
  %25 = or disjoint i32 %20, %24
  %26 = icmp slt i8 %22, -64
  %27 = icmp ugt i32 %25, 127
  %or.cond = select i1 %26, i1 %27, i1 false
  br i1 %or.cond, label %28, label %.thread47

28:                                               ; preds = %18
  store i64 2, ptr %2, align 8
  br label %89

29:                                               ; preds = %14
  %.not = icmp eq i64 %6, 2
  br i1 %.not, label %.thread47, label %30

30:                                               ; preds = %29
  %31 = and i32 %15, 240
  %32 = icmp eq i32 %31, 224
  br i1 %32, label %33, label %57

33:                                               ; preds = %30
  %34 = shl nsw i32 %15, 12
  %35 = and i32 %34, 61440
  %36 = getelementptr inbounds i8, ptr %0, i64 1
  %37 = load i8, ptr %36, align 1
  %38 = and i8 %37, 63
  %39 = zext nneg i8 %38 to i32
  %40 = shl nuw nsw i32 %39, 6
  %41 = getelementptr inbounds i8, ptr %0, i64 2
  %42 = load i8, ptr %41, align 1
  %43 = and i8 %42, 63
  %44 = zext nneg i8 %43 to i32
  %45 = or disjoint i32 %40, %44
  %46 = or disjoint i32 %45, %35
  %47 = icmp slt i8 %37, -64
  br i1 %47, label %48, label %.thread47

48:                                               ; preds = %33
  %49 = icmp slt i8 %42, -64
  %50 = icmp ugt i32 %46, 2047
  %or.cond3 = select i1 %49, i1 %50, i1 false
  br i1 %or.cond3, label %51, label %.thread47

51:                                               ; preds = %48
  %52 = icmp ult i32 %46, 55296
  %53 = add nsw i32 %35, -57344
  %54 = icmp ult i32 %53, 1056768
  %55 = or i1 %54, %52
  br i1 %55, label %56, label %.thread47

56:                                               ; preds = %51
  store i64 3, ptr %2, align 8
  br label %89

57:                                               ; preds = %30
  %58 = icmp ugt i64 %6, 3
  %59 = and i32 %15, 248
  %60 = icmp eq i32 %59, 240
  %or.cond52 = and i1 %58, %60
  br i1 %or.cond52, label %61, label %.thread47

61:                                               ; preds = %57
  %62 = shl nsw i32 %15, 18
  %63 = and i32 %62, 1835008
  %64 = getelementptr inbounds i8, ptr %0, i64 1
  %65 = load i8, ptr %64, align 1
  %66 = and i8 %65, 63
  %67 = zext nneg i8 %66 to i32
  %68 = shl nuw nsw i32 %67, 12
  %69 = or disjoint i32 %68, %63
  %70 = getelementptr inbounds i8, ptr %0, i64 2
  %71 = load i8, ptr %70, align 1
  %72 = and i8 %71, 63
  %73 = zext nneg i8 %72 to i32
  %74 = shl nuw nsw i32 %73, 6
  %75 = getelementptr inbounds i8, ptr %0, i64 3
  %76 = load i8, ptr %75, align 1
  %77 = and i8 %76, 63
  %78 = zext nneg i8 %77 to i32
  %79 = or disjoint i32 %74, %78
  %80 = or disjoint i32 %79, %69
  %81 = icmp slt i8 %65, -64
  %82 = icmp slt i8 %71, -64
  %or.cond48 = select i1 %81, i1 %82, i1 false
  br i1 %or.cond48, label %83, label %.thread47

83:                                               ; preds = %61
  %84 = icmp slt i8 %76, -64
  %85 = icmp ugt i32 %80, 65535
  %or.cond5 = select i1 %84, i1 %85, i1 false
  %86 = add nsw i32 %69, -57344
  %87 = icmp ult i32 %86, 1056768
  %or.cond50 = select i1 %or.cond5, i1 %87, i1 false
  br i1 %or.cond50, label %88, label %.thread47

88:                                               ; preds = %83
  store i64 4, ptr %2, align 8
  br label %89

.thread47:                                        ; preds = %12, %29, %18, %57, %83, %61, %33, %48, %51
  store i64 1, ptr %2, align 8
  br label %89

89:                                               ; preds = %.thread47, %88, %56, %28, %9
  %.0 = phi i32 [ %11, %9 ], [ %25, %28 ], [ 65533, %.thread47 ], [ %46, %56 ], [ %80, %88 ]
  ret i32 %.0
}